; Function Attrs: mustprogress nofree norecurse nosync nounwind willreturn memory(read, inaccessiblemem: none) uwtable
define hidden noundef zeroext i1 @_ZNK19OpenColorIO_v2_5dev23GradingBSplineCurveImpl16slopesAreDefaultEv(ptr noundef nonnull readonly align 8 captures(none) dereferenceable(56) %0) unnamed_addr #8 align 2 {
  %2 = getelementptr inbounds nuw i8, ptr %0, i64 32
  %3 = getelementptr inbounds nuw i8, ptr %0, i64 40
  %4 = load ptr, ptr %3, align 8, !tbaa !43
  %5 = load ptr, ptr %2, align 8, !tbaa !37
  %6 = icmp eq ptr %4, %5
  br i1 %6, label %._crit_edge, label %.lr.ph.preheader

.lr.ph.preheader:                                 ; preds = %1
  %7 = ptrtoint ptr %4 to i64
  %8 = ptrtoint ptr %5 to i64
  %9 = sub i64 %7, %8
  %10 = ashr exact i64 %9, 2
  %umax = tail call i64 @llvm.umax.i64(i64 %10, i64 1)
  br label %.lr.ph

.lr.ph:                                           ; preds = %.lr.ph, %.lr.ph.preheader
  %.057 = phi i64 [ 0, %.lr.ph.preheader ], [ %14, %.lr.ph ]
  %11 = getelementptr inbounds nuw float, ptr %5, i64 %.057
  %12 = load float, ptr %11, align 4, !tbaa !41
  %13 = fcmp oeq float %12, 0.000000e+00
  %14 = add nuw i64 %.057, 1
  %exitcond.not = icmp ne i64 %14, %umax
  %or.cond.not = select i1 %13, i1 %exitcond.not, i1 false
  br i1 %or.cond.not, label %.lr.ph, label %._crit_edge, !llvm.loop !62

._crit_edge:                                      ; preds = %.lr.ph, %1
  %.lcssa = phi i1 [ true, %1 ], [ %13, %.lr.ph ]
  ret i1 %.lcssa
}